; Function Attrs: mustprogress uwtable
define hidden noundef zeroext i1 @_ZNK2lp10lar_solver13inside_boundsEjRKNS_12numeric_pairI8rationalEE(ptr noundef nonnull readonly align 8 captures(none) dereferenceable(2128) %0, i32 noundef %1, ptr noundef nonnull align 8 dereferenceable(64) %2) local_unnamed_addr #5 align 2 {
  %4 = getelementptr inbounds nuw i8, ptr %0, i64 1096
  %5 = load ptr, ptr %4, align 8, !tbaa !441
  %6 = load ptr, ptr %5, align 8, !tbaa !398
  %7 = zext i32 %1 to i64
  %8 = getelementptr inbounds nuw i32, ptr %6, i64 %7
  %9 = load i32, ptr %8, align 4, !tbaa !442
  %switch.i.i = icmp ugt i32 %9, 1
  br i1 %switch.i.i, label %10, label %16

10:                                               ; preds = %3
  %11 = getelementptr inbounds nuw i8, ptr %0, i64 1112
  %12 = load ptr, ptr %11, align 8, !tbaa !574
  %13 = load ptr, ptr %12, align 8, !tbaa !275
  %14 = getelementptr inbounds nuw %"struct.lp::numeric_pair", ptr %13, i64 %7
  %15 = tail call noundef zeroext i1 @_ZNK2lp12numeric_pairI8rationalEgtERKS2_(ptr noundef nonnull align 8 dereferenceable(64) %2, ptr noundef nonnull align 8 dereferenceable(64) %14)
  br i1 %15, label %25, label %._crit_edge

._crit_edge:                                      ; preds = %10
  %.pre = load ptr, ptr %4, align 8, !tbaa !441
  %.pre7 = load ptr, ptr %.pre, align 8, !tbaa !398
  %.phi.trans.insert = getelementptr inbounds nuw i32, ptr %.pre7, i64 %7
  %.pre8 = load i32, ptr %.phi.trans.insert, align 4, !tbaa !442
  br label %16

16:                                               ; preds = %._crit_edge, %3
  %17 = phi i32 [ %.pre8, %._crit_edge ], [ %9, %3 ]
  %switch.and.i.i = and i32 %17, -3
  %switch.selectcmp.i.i.not = icmp eq i32 %switch.and.i.i, 0
  br i1 %switch.selectcmp.i.i.not, label %24, label %18

18:                                               ; preds = %16
  %19 = getelementptr inbounds nuw i8, ptr %0, i64 1104
  %20 = load ptr, ptr %19, align 8, !tbaa !573
  %21 = load ptr, ptr %20, align 8, !tbaa !275
  %22 = getelementptr inbounds nuw %"struct.lp::numeric_pair", ptr %21, i64 %7
  %23 = tail call noundef zeroext i1 @_ZNK2lp12numeric_pairI8rationalEltERKS2_(ptr noundef nonnull align 8 dereferenceable(64) %2, ptr noundef nonnull align 8 dereferenceable(64) %22)
  br i1 %23, label %25, label %24

24:                                               ; preds = %18, %16
  br label %25

25:                                               ; preds = %18, %10, %24
  %.0 = phi i1 [ true, %24 ], [ false, %10 ], [ false, %18 ]
  ret i1 %.0
}